; Function Attrs: mustprogress nofree nounwind willreturn memory(read) uwtable
define noundef zeroext i1 @_ZNK10open_spiel8GameType26ContainsRequiredParametersEv(ptr noundef nonnull readonly align 8 dereferenceable(146) %0) local_unnamed_addr #6 align 2 {
  %2 = getelementptr inbounds nuw i8, ptr %0, i64 120
  %3 = load ptr, ptr %2, align 8
  %4 = getelementptr inbounds nuw i8, ptr %0, i64 104
  %.not = icmp eq ptr %3, %4
  br i1 %.not, label %._crit_edge, label %.lr.ph

.lr.ph:                                           ; preds = %1, %8
  %.sroa.05.08 = phi ptr [ %9, %8 ], [ %3, %1 ]
  %5 = getelementptr inbounds nuw i8, ptr %.sroa.05.08, i64 64
  %6 = load i8, ptr %5, align 8
  %7 = trunc i8 %6 to i1
  br i1 %7, label %._crit_edge, label %8

8:                                                ; preds = %.lr.ph
  %9 = tail call noundef ptr @_ZSt18_Rb_tree_incrementPKSt18_Rb_tree_node_base(ptr noundef nonnull %.sroa.05.08) #30
  %.not11 = icmp eq ptr %9, %4
  br i1 %.not11, label %._crit_edge, label %.lr.ph

._crit_edge:                                      ; preds = %.lr.ph, %8, %1
  %.lcssa = phi i1 [ false, %1 ], [ %7, %8 ], [ %7, %.lr.ph ]
  ret i1 %.lcssa
}